target datalayout = "e-m:e-p270:32:32-p271:32:32-p272:64:64-i64:64-i128:128-f80:128-n8:16:32:64-S128"
target triple = "x86_64-pc-linux-gnu"

%struct.Exstate_s = type { ptr, i32, i32, %struct.Exinput_s, ptr, ptr, ptr, i32, i32, i32, ptr, [1 x i8] }
%struct.Exinput_s = type { ptr, i32, ptr, ptr, i32, i32, i32, i32, ptr, ptr }
%struct.Error_info_s = type { i32, i32, i32, i32, i32, ptr, ptr }
%union.EX_STYPE = type { ptr }
%struct.Expr_s = type { ptr, ptr, [10 x ptr], ptr, ptr, ptr, %struct._dtdisc_s, ptr, ptr, ptr, %struct.agxbuf, %union.EX_STYPE, %struct.Exid_s, [512 x i8], ptr, i32, i32, i32, i32, i64, i32, i32 }
%struct._dtdisc_s = type { i32, i32, i32, ptr, ptr, ptr }
%struct.agxbuf = type { %union.anon }
%union.anon = type { %struct.anon }
%struct.anon = type { ptr, i64, i64, [7 x i8], i8 }
%struct.Exid_s = type { %struct._dtlink_s, i64, i64, i64, i64, i64, ptr, ptr, i64, [32 x i8] }
%struct._dtlink_s = type { ptr, %union.anon.0 }
%union.anon.0 = type { ptr }
%struct.Exdisc_s = type { i64, i64, ptr, ptr, ptr, ptr, ptr, ptr, ptr, ptr, ptr, ptr, ptr, ptr, ptr, ptr, ptr, ptr, ptr }

@expr = global %struct.Exstate_s zeroinitializer, align 8
@.str.8 = private unnamed_addr constant [2 x i8] c"r\00", align 1
@.str.9 = private unnamed_addr constant [19 x i8] c"%s: file not found\00", align 1
@_err_info = external global %struct.Error_info_s, align 8

; Function Attrs: nounwind uwtable
define i32 @expush(ptr noundef %0, ptr noundef %1, i32 noundef %2, ptr noundef %3) #0 {
  %5 = alloca i32, align 4
  %6 = alloca ptr, align 8
  %7 = alloca ptr, align 8
  %8 = alloca i32, align 4
  %9 = alloca ptr, align 8
  %10 = alloca ptr, align 8
  %11 = alloca ptr, align 8
  store ptr %0, ptr %6, align 8
  store ptr %1, ptr %7, align 8
  store i32 %2, ptr %8, align 4
  store ptr %3, ptr %9, align 8
  %12 = call noalias ptr @calloc(i64 noundef 1, i64 noundef 64) #13
  store ptr %12, ptr %10, align 8
  %13 = icmp ne ptr %12, null
  br i1 %13, label %16, label %14

14:                                               ; preds = %4
  %15 = call ptr @exnospace()
  store i32 -1, ptr %5, align 4
  br label %140

16:                                               ; preds = %4
  %17 = load ptr, ptr %6, align 8
  %18 = getelementptr inbounds %struct.Expr_s, ptr %17, i32 0, i32 8
  %19 = load ptr, ptr %18, align 8
  %20 = icmp ne ptr %19, null
  br i1 %20, label %25, label %21

21:                                               ; preds = %16
  %22 = load ptr, ptr %6, align 8
  %23 = getelementptr inbounds %struct.Expr_s, ptr %22, i32 0, i32 8
  %24 = getelementptr inbounds %struct.Exstate_s, ptr @expr, i32 0, i32 3
  store ptr %24, ptr %23, align 8
  br label %25

25:                                               ; preds = %21, %16
  %26 = load ptr, ptr %9, align 8
  %27 = load ptr, ptr %10, align 8
  %28 = getelementptr inbounds %struct.Exinput_s, ptr %27, i32 0, i32 3
  store ptr %26, ptr %28, align 8
  %29 = icmp ne ptr %26, null
  br i1 %29, label %30, label %33

30:                                               ; preds = %25
  %31 = load ptr, ptr %10, align 8
  %32 = getelementptr inbounds %struct.Exinput_s, ptr %31, i32 0, i32 1
  store i32 0, ptr %32, align 8
  br label %69

33:                                               ; preds = %25
  %34 = load ptr, ptr %7, align 8
  %35 = icmp ne ptr %34, null
  br i1 %35, label %36, label %68

36:                                               ; preds = %33
  %37 = load ptr, ptr %7, align 8
  %38 = load ptr, ptr %6, align 8
  %39 = getelementptr inbounds %struct.Expr_s, ptr %38, i32 0, i32 7
  %40 = load ptr, ptr %39, align 8
  %41 = getelementptr inbounds %struct.Exdisc_s, ptr %40, i32 0, i32 4
  %42 = load ptr, ptr %41, align 8
  %43 = load ptr, ptr %6, align 8
  %44 = getelementptr inbounds %struct.Expr_s, ptr %43, i32 0, i32 7
  %45 = load ptr, ptr %44, align 8
  %46 = getelementptr inbounds %struct.Exdisc_s, ptr %45, i32 0, i32 5
  %47 = load ptr, ptr %46, align 8
  %48 = call ptr @pathfind(ptr noundef %37, ptr noundef %42, ptr noundef %47)
  store ptr %48, ptr %11, align 8
  %49 = icmp ne ptr %48, null
  br i1 %49, label %50, label %56

50:                                               ; preds = %36
  %51 = load ptr, ptr %11, align 8
  %52 = call noalias ptr @fopen(ptr noundef %51, ptr noundef @.str.8)
  %53 = load ptr, ptr %10, align 8
  %54 = getelementptr inbounds %struct.Exinput_s, ptr %53, i32 0, i32 3
  store ptr %52, ptr %54, align 8
  %55 = icmp ne ptr %52, null
  br i1 %55, label %58, label %56

56:                                               ; preds = %50, %36
  %57 = load ptr, ptr %7, align 8
  call void (ptr, ...) @exerror(ptr noundef @.str.9, ptr noundef %57)
  br label %66

58:                                               ; preds = %50
  %59 = load ptr, ptr %6, align 8
  %60 = getelementptr inbounds %struct.Expr_s, ptr %59, i32 0, i32 3
  %61 = load ptr, ptr %60, align 8
  %62 = load ptr, ptr %11, align 8
  %63 = call ptr @vmstrdup(ptr noundef %61, ptr noundef %62)
  store ptr %63, ptr %7, align 8
  %64 = load ptr, ptr %10, align 8
  %65 = getelementptr inbounds %struct.Exinput_s, ptr %64, i32 0, i32 1
  store i32 1, ptr %65, align 8
  br label %66

66:                                               ; preds = %58, %56
  %67 = load ptr, ptr %11, align 8
  call void @free(ptr noundef %67) #12
  br label %68

68:                                               ; preds = %66, %33
  br label %69

69:                                               ; preds = %68, %30
  %70 = load ptr, ptr %6, align 8
  %71 = getelementptr inbounds %struct.Expr_s, ptr %70, i32 0, i32 8
  %72 = load ptr, ptr %71, align 8
  %73 = load ptr, ptr %10, align 8
  %74 = getelementptr inbounds %struct.Exinput_s, ptr %73, i32 0, i32 0
  store ptr %72, ptr %74, align 8
  %75 = getelementptr inbounds %struct.Exinput_s, ptr %72, i32 0, i32 0
  %76 = load ptr, ptr %75, align 8
  %77 = icmp ne ptr %76, null
  br i1 %77, label %87, label %78

78:                                               ; preds = %69
  %79 = load ptr, ptr %6, align 8
  %80 = getelementptr inbounds %struct.Expr_s, ptr %79, i32 0, i32 16
  store i32 0, ptr %80, align 4
  %81 = load i32, ptr %8, align 4
  %82 = icmp sge i32 %81, 0
  br i1 %82, label %83, label %86

83:                                               ; preds = %78
  %84 = load i32, ptr %8, align 4
  %85 = getelementptr inbounds %struct.Error_info_s, ptr @_err_info, i32 0, i32 2
  store i32 %84, ptr %85, align 8
  br label %86

86:                                               ; preds = %83, %78
  br label %94

87:                                               ; preds = %69
  %88 = load i32, ptr %8, align 4
  %89 = icmp sge i32 %88, 0
  br i1 %89, label %90, label %93

90:                                               ; preds = %87
  %91 = load i32, ptr %8, align 4
  %92 = getelementptr inbounds %struct.Error_info_s, ptr @_err_info, i32 0, i32 2
  store i32 %91, ptr %92, align 8
  br label %93

93:                                               ; preds = %90, %87
  br label %94

94:                                               ; preds = %93, %86
  %95 = load ptr, ptr %6, align 8
  %96 = getelementptr inbounds %struct.Expr_s, ptr %95, i32 0, i32 13
  %97 = getelementptr inbounds [512 x i8], ptr %96, i64 0, i64 0
  %98 = load ptr, ptr %6, align 8
  %99 = getelementptr inbounds %struct.Expr_s, ptr %98, i32 0, i32 14
  store ptr %97, ptr %99, align 8
  %100 = load ptr, ptr %6, align 8
  %101 = getelementptr inbounds %struct.Expr_s, ptr %100, i32 0, i32 18
  store i32 0, ptr %101, align 4
  %102 = load ptr, ptr %6, align 8
  %103 = getelementptr inbounds %struct.Expr_s, ptr %102, i32 0, i32 15
  store i32 0, ptr %103, align 8
  %104 = load ptr, ptr %10, align 8
  %105 = load ptr, ptr %6, align 8
  %106 = getelementptr inbounds %struct.Expr_s, ptr %105, i32 0, i32 8
  store ptr %104, ptr %106, align 8
  %107 = getelementptr inbounds %struct.Error_info_s, ptr @_err_info, i32 0, i32 5
  %108 = load ptr, ptr %107, align 8
  %109 = load ptr, ptr %10, align 8
  %110 = getelementptr inbounds %struct.Exinput_s, ptr %109, i32 0, i32 2
  store ptr %108, ptr %110, align 8
  %111 = load i32, ptr %8, align 4
  %112 = icmp sge i32 %111, 0
  br i1 %112, label %113, label %116

113:                                              ; preds = %94
  %114 = load ptr, ptr %7, align 8
  %115 = getelementptr inbounds %struct.Error_info_s, ptr @_err_info, i32 0, i32 5
  store ptr %114, ptr %115, align 8
  br label %116

116:                                              ; preds = %113, %94
  %117 = getelementptr inbounds %struct.Error_info_s, ptr @_err_info, i32 0, i32 2
  %118 = load i32, ptr %117, align 8
  %119 = load ptr, ptr %10, align 8
  %120 = getelementptr inbounds %struct.Exinput_s, ptr %119, i32 0, i32 4
  store i32 %118, ptr %120, align 8
  %121 = load ptr, ptr %10, align 8
  %122 = getelementptr inbounds %struct.Exinput_s, ptr %121, i32 0, i32 5
  store i32 0, ptr %122, align 4
  %123 = load ptr, ptr %7, align 8
  %124 = icmp ne ptr %123, null
  br i1 %124, label %129, label %125

125:                                              ; preds = %116
  %126 = load i32, ptr %8, align 4
  %127 = icmp ne i32 %126, 0
  %128 = xor i1 %127, true
  br label %129

129:                                              ; preds = %125, %116
  %130 = phi i1 [ false, %116 ], [ %128, %125 ]
  %131 = zext i1 %130 to i32
  %132 = load ptr, ptr %10, align 8
  %133 = getelementptr inbounds %struct.Exinput_s, ptr %132, i32 0, i32 7
  store i32 %131, ptr %133, align 4
  %134 = getelementptr inbounds %struct.Exstate_s, ptr @expr, i32 0, i32 4
  %135 = load ptr, ptr %134, align 8
  %136 = load ptr, ptr %6, align 8
  %137 = getelementptr inbounds %struct.Expr_s, ptr %136, i32 0, i32 9
  store ptr %135, ptr %137, align 8
  %138 = load ptr, ptr %6, align 8
  %139 = getelementptr inbounds %struct.Exstate_s, ptr @expr, i32 0, i32 4
  store ptr %138, ptr %139, align 8
  store i32 0, ptr %5, align 4
  br label %140

140:                                              ; preds = %129, %14
  %141 = load i32, ptr %5, align 4
  ret i32 %141
}