; Function Attrs: nounwind uwtable
define range(i32 -1, 1) i32 @expush(ptr noundef %0, ptr noundef %1, i32 noundef %2, ptr noundef %3) local_unnamed_addr #0 {
  %5 = tail call noalias dereferenceable_or_null(64) ptr @calloc(i64 noundef 1, i64 noundef 64) #23
  %.not = icmp eq ptr %5, null
  br i1 %.not, label %6, label %8

6:                                                ; preds = %4
  %7 = tail call ptr @exnospace() #22
  br label %59

8:                                                ; preds = %4
  %9 = getelementptr inbounds nuw i8, ptr %0, i64 168
  %10 = load ptr, ptr %9, align 8
  %.not46 = icmp eq ptr %10, null
  br i1 %.not46, label %11, label %12

11:                                               ; preds = %8
  store ptr getelementptr inbounds nuw (i8, ptr @expr, i64 16), ptr %9, align 8
  br label %12

12:                                               ; preds = %11, %8
  %13 = phi ptr [ getelementptr inbounds nuw (i8, ptr @expr, i64 16), %11 ], [ %10, %8 ]
  %14 = getelementptr inbounds nuw i8, ptr %5, i64 24
  store ptr %3, ptr %14, align 8
  %.not47 = icmp eq ptr %3, null
  br i1 %.not47, label %15, label %33

15:                                               ; preds = %12
  %.not48 = icmp eq ptr %1, null
  br i1 %.not48, label %33, label %16

16:                                               ; preds = %15
  %17 = getelementptr inbounds nuw i8, ptr %0, i64 160
  %18 = load ptr, ptr %17, align 8
  %19 = getelementptr inbounds nuw i8, ptr %18, i64 32
  %20 = load ptr, ptr %19, align 8
  %21 = getelementptr inbounds nuw i8, ptr %18, i64 40
  %22 = load ptr, ptr %21, align 8
  %23 = tail call ptr @pathfind(ptr noundef nonnull %1, ptr noundef %20, ptr noundef %22) #22
  %.not49 = icmp eq ptr %23, null
  br i1 %.not49, label %26, label %24

24:                                               ; preds = %16
  %25 = tail call noalias ptr @fopen(ptr noundef nonnull %23, ptr noundef nonnull @.str.8)
  store ptr %25, ptr %14, align 8
  %.not50 = icmp eq ptr %25, null
  br i1 %.not50, label %26, label %27

26:                                               ; preds = %24, %16
  tail call void (ptr, ...) @exerror(ptr noundef nonnull @.str.9, ptr noundef nonnull %1) #22
  br label %32

27:                                               ; preds = %24
  %28 = getelementptr inbounds nuw i8, ptr %0, i64 96
  %29 = load ptr, ptr %28, align 8
  %30 = tail call ptr @vmstrdup(ptr noundef %29, ptr noundef nonnull %23) #22
  %31 = getelementptr inbounds nuw i8, ptr %5, i64 8
  store i32 1, ptr %31, align 8
  br label %32

32:                                               ; preds = %27, %26
  %.1 = phi ptr [ %30, %27 ], [ %1, %26 ]
  tail call void @free(ptr noundef %23) #22
  %.pre = load ptr, ptr %9, align 8
  br label %33

33:                                               ; preds = %12, %15, %32
  %34 = phi ptr [ %.pre, %32 ], [ %13, %15 ], [ %13, %12 ]
  %.039 = phi ptr [ %.1, %32 ], [ null, %15 ], [ %1, %12 ]
  store ptr %34, ptr %5, align 8
  %35 = load ptr, ptr %34, align 8
  %.not51 = icmp eq ptr %35, null
  br i1 %.not51, label %36, label %39

36:                                               ; preds = %33
  %37 = getelementptr inbounds nuw i8, ptr %0, i64 860
  store i32 0, ptr %37, align 4
  %38 = icmp sgt i32 %2, -1
  br i1 %38, label %.sink.split, label %41

39:                                               ; preds = %33
  %40 = icmp sgt i32 %2, -1
  br i1 %40, label %.sink.split, label %41

.sink.split:                                      ; preds = %39, %36
  store i32 %2, ptr getelementptr inbounds nuw (i8, ptr @_err_info, i64 8), align 8
  br label %41

41:                                               ; preds = %.sink.split, %39, %36
  %42 = getelementptr inbounds nuw i8, ptr %0, i64 336
  %43 = getelementptr inbounds nuw i8, ptr %0, i64 848
  store ptr %42, ptr %43, align 8
  %44 = getelementptr inbounds nuw i8, ptr %0, i64 868
  store i32 0, ptr %44, align 4
  %45 = getelementptr inbounds nuw i8, ptr %0, i64 856
  store i32 0, ptr %45, align 8
  store ptr %5, ptr %9, align 8
  %46 = load ptr, ptr getelementptr inbounds nuw (i8, ptr @_err_info, i64 24), align 8
  %47 = getelementptr inbounds nuw i8, ptr %5, i64 16
  store ptr %46, ptr %47, align 8
  %48 = icmp sgt i32 %2, -1
  br i1 %48, label %49, label %50

49:                                               ; preds = %41
  store ptr %.039, ptr getelementptr inbounds nuw (i8, ptr @_err_info, i64 24), align 8
  br label %50

50:                                               ; preds = %49, %41
  %51 = load i32, ptr getelementptr inbounds nuw (i8, ptr @_err_info, i64 8), align 8
  %52 = getelementptr inbounds nuw i8, ptr %5, i64 32
  store i32 %51, ptr %52, align 8
  %53 = getelementptr inbounds nuw i8, ptr %5, i64 36
  store i32 0, ptr %53, align 4
  %.not52 = icmp eq ptr %.039, null
  %.not53 = icmp eq i32 %2, 0
  %54 = and i1 %.not53, %.not52
  %55 = zext i1 %54 to i32
  %56 = getelementptr inbounds nuw i8, ptr %5, i64 44
  store i32 %55, ptr %56, align 4
  %57 = load ptr, ptr getelementptr inbounds nuw (i8, ptr @expr, i64 80), align 8
  %58 = getelementptr inbounds nuw i8, ptr %0, i64 176
  store ptr %57, ptr %58, align 8
  store ptr %0, ptr getelementptr inbounds nuw (i8, ptr @expr, i64 80), align 8
  br label %59

59:                                               ; preds = %50, %6
  %.0 = phi i32 [ 0, %50 ], [ -1, %6 ]
  ret i32 %.0
}